
Timer.elf:     file format elf32-avr

Sections:
Idx Name          Size      VMA       LMA       File off  Algn
  0 .text         00000352  00000000  00000000  00000074  2**1
                  CONTENTS, ALLOC, LOAD, READONLY, CODE
  1 .data         00000000  00800060  00800060  000003c6  2**0
                  CONTENTS, ALLOC, LOAD, DATA
  2 .bss          0000000d  00800060  00800060  000003c6  2**0
                  ALLOC
  3 .comment      00000030  00000000  00000000  000003c6  2**0
                  CONTENTS, READONLY
  4 .note.gnu.avr.deviceinfo 0000003c  00000000  00000000  000003f8  2**2
                  CONTENTS, READONLY
  5 .debug_info   000004e6  00000000  00000000  00000434  2**0
                  CONTENTS, READONLY, DEBUGGING
  6 .debug_abbrev 000004a3  00000000  00000000  0000091a  2**0
                  CONTENTS, READONLY, DEBUGGING
  7 .debug_line   00000115  00000000  00000000  00000dbd  2**0
                  CONTENTS, READONLY, DEBUGGING
  8 .debug_str    00000196  00000000  00000000  00000ed2  2**0
                  CONTENTS, READONLY, DEBUGGING

Disassembly of section .text:

00000000 <__vectors>:
   0:	0c 94 2a 00 	jmp	0x54	; 0x54 <__ctors_end>
   4:	0c 94 3c 00 	jmp	0x78	; 0x78 <__bad_interrupt>
   8:	0c 94 3c 00 	jmp	0x78	; 0x78 <__bad_interrupt>
   c:	0c 94 3c 00 	jmp	0x78	; 0x78 <__bad_interrupt>
  10:	0c 94 3c 00 	jmp	0x78	; 0x78 <__bad_interrupt>
  14:	0c 94 3c 00 	jmp	0x78	; 0x78 <__bad_interrupt>
  18:	0c 94 3c 00 	jmp	0x78	; 0x78 <__bad_interrupt>
  1c:	0c 94 6c 01 	jmp	0x2d8	; 0x2d8 <__vector_7>
  20:	0c 94 3c 00 	jmp	0x78	; 0x78 <__bad_interrupt>
  24:	0c 94 3c 00 	jmp	0x78	; 0x78 <__bad_interrupt>
  28:	0c 94 3c 00 	jmp	0x78	; 0x78 <__bad_interrupt>
  2c:	0c 94 2e 01 	jmp	0x25c	; 0x25c <__vector_11>
  30:	0c 94 3c 00 	jmp	0x78	; 0x78 <__bad_interrupt>
  34:	0c 94 3c 00 	jmp	0x78	; 0x78 <__bad_interrupt>
  38:	0c 94 3c 00 	jmp	0x78	; 0x78 <__bad_interrupt>
  3c:	0c 94 3c 00 	jmp	0x78	; 0x78 <__bad_interrupt>
  40:	0c 94 3c 00 	jmp	0x78	; 0x78 <__bad_interrupt>
  44:	0c 94 3c 00 	jmp	0x78	; 0x78 <__bad_interrupt>
  48:	0c 94 3c 00 	jmp	0x78	; 0x78 <__bad_interrupt>
  4c:	0c 94 3c 00 	jmp	0x78	; 0x78 <__bad_interrupt>
  50:	0c 94 3c 00 	jmp	0x78	; 0x78 <__bad_interrupt>

00000054 <__ctors_end>:
  54:	11 24       	eor	r1, r1
  56:	1f be       	out	0x3f, r1	; 63
  58:	cf e5       	ldi	r28, 0x5F	; 95
  5a:	d8 e0       	ldi	r29, 0x08	; 8
  5c:	de bf       	out	0x3e, r29	; 62
  5e:	cd bf       	out	0x3d, r28	; 61

00000060 <__do_clear_bss>:
  60:	20 e0       	ldi	r18, 0x00	; 0
  62:	a0 e6       	ldi	r26, 0x60	; 96
  64:	b0 e0       	ldi	r27, 0x00	; 0
  66:	01 c0       	rjmp	.+2      	; 0x6a <.do_clear_bss_start>

00000068 <.do_clear_bss_loop>:
  68:	1d 92       	st	X+, r1

0000006a <.do_clear_bss_start>:
  6a:	ad 36       	cpi	r26, 0x6D	; 109
  6c:	b2 07       	cpc	r27, r18
  6e:	e1 f7       	brne	.-8      	; 0x68 <.do_clear_bss_loop>
  70:	0e 94 dc 00 	call	0x1b8	; 0x1b8 <main>
  74:	0c 94 a7 01 	jmp	0x34e	; 0x34e <_exit>

00000078 <__bad_interrupt>:
  78:	0c 94 00 00 	jmp	0	; 0x0 <__vectors>

0000007c <DIO_SetPinDir>:
  7c:	44 23       	and	r20, r20
  7e:	79 f1       	breq	.+94     	; 0xde <DIO_SetPinDir+0x62>
  80:	41 30       	cpi	r20, 0x01	; 1
  82:	09 f0       	breq	.+2      	; 0x86 <DIO_SetPinDir+0xa>
  84:	5f c0       	rjmp	.+190    	; 0x144 <DIO_SetPinDir+0xc8>
  86:	81 30       	cpi	r24, 0x01	; 1
  88:	79 f0       	breq	.+30     	; 0xa8 <DIO_SetPinDir+0x2c>
  8a:	28 f0       	brcs	.+10     	; 0x96 <DIO_SetPinDir+0x1a>
  8c:	82 30       	cpi	r24, 0x02	; 2
  8e:	a9 f0       	breq	.+42     	; 0xba <DIO_SetPinDir+0x3e>
  90:	83 30       	cpi	r24, 0x03	; 3
  92:	e1 f0       	breq	.+56     	; 0xcc <DIO_SetPinDir+0x50>
  94:	08 95       	ret
  96:	2a b3       	in	r18, 0x1a	; 26
  98:	81 e0       	ldi	r24, 0x01	; 1
  9a:	90 e0       	ldi	r25, 0x00	; 0
  9c:	01 c0       	rjmp	.+2      	; 0xa0 <DIO_SetPinDir+0x24>
  9e:	88 0f       	add	r24, r24
  a0:	6a 95       	dec	r22
  a2:	ea f7       	brpl	.-6      	; 0x9e <DIO_SetPinDir+0x22>
  a4:	82 2b       	or	r24, r18
  a6:	2c c0       	rjmp	.+88     	; 0x100 <DIO_SetPinDir+0x84>
  a8:	27 b3       	in	r18, 0x17	; 23
  aa:	81 e0       	ldi	r24, 0x01	; 1
  ac:	90 e0       	ldi	r25, 0x00	; 0
  ae:	01 c0       	rjmp	.+2      	; 0xb2 <DIO_SetPinDir+0x36>
  b0:	88 0f       	add	r24, r24
  b2:	6a 95       	dec	r22
  b4:	ea f7       	brpl	.-6      	; 0xb0 <DIO_SetPinDir+0x34>
  b6:	82 2b       	or	r24, r18
  b8:	2e c0       	rjmp	.+92     	; 0x116 <DIO_SetPinDir+0x9a>
  ba:	24 b3       	in	r18, 0x14	; 20
  bc:	81 e0       	ldi	r24, 0x01	; 1
  be:	90 e0       	ldi	r25, 0x00	; 0
  c0:	01 c0       	rjmp	.+2      	; 0xc4 <DIO_SetPinDir+0x48>
  c2:	88 0f       	add	r24, r24
  c4:	6a 95       	dec	r22
  c6:	ea f7       	brpl	.-6      	; 0xc2 <DIO_SetPinDir+0x46>
  c8:	82 2b       	or	r24, r18
  ca:	30 c0       	rjmp	.+96     	; 0x12c <DIO_SetPinDir+0xb0>
  cc:	21 b3       	in	r18, 0x11	; 17
  ce:	81 e0       	ldi	r24, 0x01	; 1
  d0:	90 e0       	ldi	r25, 0x00	; 0
  d2:	01 c0       	rjmp	.+2      	; 0xd6 <DIO_SetPinDir+0x5a>
  d4:	88 0f       	add	r24, r24
  d6:	6a 95       	dec	r22
  d8:	ea f7       	brpl	.-6      	; 0xd4 <DIO_SetPinDir+0x58>
  da:	82 2b       	or	r24, r18
  dc:	32 c0       	rjmp	.+100    	; 0x142 <DIO_SetPinDir+0xc6>
  de:	81 30       	cpi	r24, 0x01	; 1
  e0:	89 f0       	breq	.+34     	; 0x104 <DIO_SetPinDir+0x88>
  e2:	28 f0       	brcs	.+10     	; 0xee <DIO_SetPinDir+0x72>
  e4:	82 30       	cpi	r24, 0x02	; 2
  e6:	c9 f0       	breq	.+50     	; 0x11a <DIO_SetPinDir+0x9e>
  e8:	83 30       	cpi	r24, 0x03	; 3
  ea:	11 f1       	breq	.+68     	; 0x130 <DIO_SetPinDir+0xb4>
  ec:	08 95       	ret
  ee:	2a b3       	in	r18, 0x1a	; 26
  f0:	81 e0       	ldi	r24, 0x01	; 1
  f2:	90 e0       	ldi	r25, 0x00	; 0
  f4:	01 c0       	rjmp	.+2      	; 0xf8 <DIO_SetPinDir+0x7c>
  f6:	88 0f       	add	r24, r24
  f8:	6a 95       	dec	r22
  fa:	ea f7       	brpl	.-6      	; 0xf6 <DIO_SetPinDir+0x7a>
  fc:	80 95       	com	r24
  fe:	82 23       	and	r24, r18
 100:	8a bb       	out	0x1a, r24	; 26
 102:	08 95       	ret
 104:	27 b3       	in	r18, 0x17	; 23
 106:	81 e0       	ldi	r24, 0x01	; 1
 108:	90 e0       	ldi	r25, 0x00	; 0
 10a:	01 c0       	rjmp	.+2      	; 0x10e <DIO_SetPinDir+0x92>
 10c:	88 0f       	add	r24, r24
 10e:	6a 95       	dec	r22
 110:	ea f7       	brpl	.-6      	; 0x10c <DIO_SetPinDir+0x90>
 112:	80 95       	com	r24
 114:	82 23       	and	r24, r18
 116:	87 bb       	out	0x17, r24	; 23
 118:	08 95       	ret
 11a:	24 b3       	in	r18, 0x14	; 20
 11c:	81 e0       	ldi	r24, 0x01	; 1
 11e:	90 e0       	ldi	r25, 0x00	; 0
 120:	01 c0       	rjmp	.+2      	; 0x124 <DIO_SetPinDir+0xa8>
 122:	88 0f       	add	r24, r24
 124:	6a 95       	dec	r22
 126:	ea f7       	brpl	.-6      	; 0x122 <DIO_SetPinDir+0xa6>
 128:	80 95       	com	r24
 12a:	82 23       	and	r24, r18
 12c:	84 bb       	out	0x14, r24	; 20
 12e:	08 95       	ret
 130:	21 b3       	in	r18, 0x11	; 17
 132:	81 e0       	ldi	r24, 0x01	; 1
 134:	90 e0       	ldi	r25, 0x00	; 0
 136:	01 c0       	rjmp	.+2      	; 0x13a <DIO_SetPinDir+0xbe>
 138:	88 0f       	add	r24, r24
 13a:	6a 95       	dec	r22
 13c:	ea f7       	brpl	.-6      	; 0x138 <DIO_SetPinDir+0xbc>
 13e:	80 95       	com	r24
 140:	82 23       	and	r24, r18
 142:	81 bb       	out	0x11, r24	; 17
 144:	08 95       	ret

00000146 <DIO_ToqqlePin>:
 146:	81 30       	cpi	r24, 0x01	; 1
 148:	81 f0       	breq	.+32     	; 0x16a <DIO_ToqqlePin+0x24>
 14a:	28 f0       	brcs	.+10     	; 0x156 <DIO_ToqqlePin+0x10>
 14c:	82 30       	cpi	r24, 0x02	; 2
 14e:	b9 f0       	breq	.+46     	; 0x17e <DIO_ToqqlePin+0x38>
 150:	83 30       	cpi	r24, 0x03	; 3
 152:	f9 f0       	breq	.+62     	; 0x192 <DIO_ToqqlePin+0x4c>
 154:	08 95       	ret
 156:	2b b3       	in	r18, 0x1b	; 27
 158:	81 e0       	ldi	r24, 0x01	; 1
 15a:	90 e0       	ldi	r25, 0x00	; 0
 15c:	01 c0       	rjmp	.+2      	; 0x160 <DIO_ToqqlePin+0x1a>
 15e:	88 0f       	add	r24, r24
 160:	6a 95       	dec	r22
 162:	ea f7       	brpl	.-6      	; 0x15e <DIO_ToqqlePin+0x18>
 164:	82 27       	eor	r24, r18
 166:	8b bb       	out	0x1b, r24	; 27
 168:	08 95       	ret
 16a:	28 b3       	in	r18, 0x18	; 24
 16c:	81 e0       	ldi	r24, 0x01	; 1
 16e:	90 e0       	ldi	r25, 0x00	; 0
 170:	01 c0       	rjmp	.+2      	; 0x174 <DIO_ToqqlePin+0x2e>
 172:	88 0f       	add	r24, r24
 174:	6a 95       	dec	r22
 176:	ea f7       	brpl	.-6      	; 0x172 <DIO_ToqqlePin+0x2c>
 178:	82 27       	eor	r24, r18
 17a:	88 bb       	out	0x18, r24	; 24
 17c:	08 95       	ret
 17e:	25 b3       	in	r18, 0x15	; 21
 180:	81 e0       	ldi	r24, 0x01	; 1
 182:	90 e0       	ldi	r25, 0x00	; 0
 184:	01 c0       	rjmp	.+2      	; 0x188 <DIO_ToqqlePin+0x42>
 186:	88 0f       	add	r24, r24
 188:	6a 95       	dec	r22
 18a:	ea f7       	brpl	.-6      	; 0x186 <DIO_ToqqlePin+0x40>
 18c:	82 27       	eor	r24, r18
 18e:	85 bb       	out	0x15, r24	; 21
 190:	08 95       	ret
 192:	22 b3       	in	r18, 0x12	; 18
 194:	81 e0       	ldi	r24, 0x01	; 1
 196:	90 e0       	ldi	r25, 0x00	; 0
 198:	01 c0       	rjmp	.+2      	; 0x19c <DIO_ToqqlePin+0x56>
 19a:	88 0f       	add	r24, r24
 19c:	6a 95       	dec	r22
 19e:	ea f7       	brpl	.-6      	; 0x19a <DIO_ToqqlePin+0x54>
 1a0:	82 27       	eor	r24, r18
 1a2:	82 bb       	out	0x12, r24	; 18
 1a4:	08 95       	ret

000001a6 <LED0_Init>:
 1a6:	41 e0       	ldi	r20, 0x01	; 1
 1a8:	62 e0       	ldi	r22, 0x02	; 2
 1aa:	82 e0       	ldi	r24, 0x02	; 2
 1ac:	0c 94 3e 00 	jmp	0x7c	; 0x7c <DIO_SetPinDir>

000001b0 <LED0_toggle>:
 1b0:	62 e0       	ldi	r22, 0x02	; 2
 1b2:	82 e0       	ldi	r24, 0x02	; 2
 1b4:	0c 94 a3 00 	jmp	0x146	; 0x146 <DIO_ToqqlePin>

000001b8 <main>:
 1b8:	0e 94 d3 00 	call	0x1a6	; 0x1a6 <LED0_Init>
 1bc:	88 ed       	ldi	r24, 0xD8	; 216
 1be:	90 e0       	ldi	r25, 0x00	; 0
 1c0:	0e 94 29 01 	call	0x252	; 0x252 <Timer0_SetCallBack>
 1c4:	0e 94 eb 00 	call	0x1d6	; 0x1d6 <Timer0_INIT>
 1c8:	88 ee       	ldi	r24, 0xE8	; 232
 1ca:	93 e0       	ldi	r25, 0x03	; 3
 1cc:	0e 94 02 01 	call	0x204	; 0x204 <Timer0_SetDelay>
 1d0:	0e 94 f8 00 	call	0x1f0	; 0x1f0 <Timer0_Start>
 1d4:	ff cf       	rjmp	.-2      	; 0x1d4 <main+0x1c>

000001d6 <Timer0_INIT>:
 1d6:	83 b7       	in	r24, 0x33	; 51
 1d8:	87 7f       	andi	r24, 0xF7	; 247
 1da:	83 bf       	out	0x33, r24	; 51
 1dc:	83 b7       	in	r24, 0x33	; 51
 1de:	8f 7b       	andi	r24, 0xBF	; 191
 1e0:	83 bf       	out	0x33, r24	; 51
 1e2:	89 b7       	in	r24, 0x39	; 57
 1e4:	81 60       	ori	r24, 0x01	; 1
 1e6:	89 bf       	out	0x39, r24	; 57
 1e8:	8f b7       	in	r24, 0x3f	; 63
 1ea:	80 68       	ori	r24, 0x80	; 128
 1ec:	8f bf       	out	0x3f, r24	; 63
 1ee:	08 95       	ret

000001f0 <Timer0_Start>:
 1f0:	83 b7       	in	r24, 0x33	; 51
 1f2:	81 60       	ori	r24, 0x01	; 1
 1f4:	83 bf       	out	0x33, r24	; 51
 1f6:	83 b7       	in	r24, 0x33	; 51
 1f8:	8d 7f       	andi	r24, 0xFD	; 253
 1fa:	83 bf       	out	0x33, r24	; 51
 1fc:	83 b7       	in	r24, 0x33	; 51
 1fe:	84 60       	ori	r24, 0x04	; 4
 200:	83 bf       	out	0x33, r24	; 51
 202:	08 95       	ret

00000204 <Timer0_SetDelay>:
 204:	28 ee       	ldi	r18, 0xE8	; 232
 206:	33 e0       	ldi	r19, 0x03	; 3
 208:	ac 01       	movw	r20, r24
 20a:	42 9f       	mul	r20, r18
 20c:	c0 01       	movw	r24, r0
 20e:	43 9f       	mul	r20, r19
 210:	90 0d       	add	r25, r0
 212:	52 9f       	mul	r21, r18
 214:	90 0d       	add	r25, r0
 216:	11 24       	eor	r1, r1
 218:	9c 01       	movw	r18, r24
 21a:	24 e0       	ldi	r18, 0x04	; 4
 21c:	32 9f       	mul	r19, r18
 21e:	21 2d       	mov	r18, r1
 220:	33 27       	eor	r19, r19
 222:	11 24       	eor	r1, r1
 224:	30 93 6c 00 	sts	0x006C, r19	; 0x80006c <Num_OVF+0x1>
 228:	20 93 6b 00 	sts	0x006B, r18	; 0x80006b <Num_OVF>
 22c:	56 e0       	ldi	r21, 0x06	; 6
 22e:	96 95       	lsr	r25
 230:	87 95       	ror	r24
 232:	5a 95       	dec	r21
 234:	e1 f7       	brne	.-8      	; 0x22e <Timer0_SetDelay+0x2a>
 236:	81 95       	neg	r24
 238:	80 93 6a 00 	sts	0x006A, r24	; 0x80006a <Init_Value>
 23c:	82 bf       	out	0x32, r24	; 50
 23e:	80 91 6b 00 	lds	r24, 0x006B	; 0x80006b <Num_OVF>
 242:	90 91 6c 00 	lds	r25, 0x006C	; 0x80006c <Num_OVF+0x1>
 246:	01 96       	adiw	r24, 0x01	; 1
 248:	90 93 6c 00 	sts	0x006C, r25	; 0x80006c <Num_OVF+0x1>
 24c:	80 93 6b 00 	sts	0x006B, r24	; 0x80006b <Num_OVF>
 250:	08 95       	ret

00000252 <Timer0_SetCallBack>:
 252:	90 93 69 00 	sts	0x0069, r25	; 0x800069 <ptr_Timer0+0x1>
 256:	80 93 68 00 	sts	0x0068, r24	; 0x800068 <ptr_Timer0>
 25a:	08 95       	ret

0000025c <__vector_11>:
 25c:	1f 92       	push	r1
 25e:	0f 92       	push	r0
 260:	0f b6       	in	r0, 0x3f	; 63
 262:	0f 92       	push	r0
 264:	11 24       	eor	r1, r1
 266:	2f 93       	push	r18
 268:	3f 93       	push	r19
 26a:	4f 93       	push	r20
 26c:	5f 93       	push	r21
 26e:	6f 93       	push	r22
 270:	7f 93       	push	r23
 272:	8f 93       	push	r24
 274:	9f 93       	push	r25
 276:	af 93       	push	r26
 278:	bf 93       	push	r27
 27a:	ef 93       	push	r30
 27c:	ff 93       	push	r31
 27e:	80 91 62 00 	lds	r24, 0x0062	; 0x800062 <CT.1661>
 282:	90 91 63 00 	lds	r25, 0x0063	; 0x800063 <CT.1661+0x1>
 286:	01 96       	adiw	r24, 0x01	; 1
 288:	90 93 63 00 	sts	0x0063, r25	; 0x800063 <CT.1661+0x1>
 28c:	80 93 62 00 	sts	0x0062, r24	; 0x800062 <CT.1661>
 290:	20 91 6b 00 	lds	r18, 0x006B	; 0x80006b <Num_OVF>
 294:	30 91 6c 00 	lds	r19, 0x006C	; 0x80006c <Num_OVF+0x1>
 298:	82 17       	cp	r24, r18
 29a:	93 07       	cpc	r25, r19
 29c:	61 f4       	brne	.+24     	; 0x2b6 <__vector_11+0x5a>
 29e:	10 92 63 00 	sts	0x0063, r1	; 0x800063 <CT.1661+0x1>
 2a2:	10 92 62 00 	sts	0x0062, r1	; 0x800062 <CT.1661>
 2a6:	80 91 6a 00 	lds	r24, 0x006A	; 0x80006a <Init_Value>
 2aa:	82 bf       	out	0x32, r24	; 50
 2ac:	e0 91 68 00 	lds	r30, 0x0068	; 0x800068 <ptr_Timer0>
 2b0:	f0 91 69 00 	lds	r31, 0x0069	; 0x800069 <ptr_Timer0+0x1>
 2b4:	09 95       	icall
 2b6:	ff 91       	pop	r31
 2b8:	ef 91       	pop	r30
 2ba:	bf 91       	pop	r27
 2bc:	af 91       	pop	r26
 2be:	9f 91       	pop	r25
 2c0:	8f 91       	pop	r24
 2c2:	7f 91       	pop	r23
 2c4:	6f 91       	pop	r22
 2c6:	5f 91       	pop	r21
 2c8:	4f 91       	pop	r20
 2ca:	3f 91       	pop	r19
 2cc:	2f 91       	pop	r18
 2ce:	0f 90       	pop	r0
 2d0:	0f be       	out	0x3f, r0	; 63
 2d2:	0f 90       	pop	r0
 2d4:	1f 90       	pop	r1
 2d6:	18 95       	reti

000002d8 <__vector_7>:
 2d8:	1f 92       	push	r1
 2da:	0f 92       	push	r0
 2dc:	0f b6       	in	r0, 0x3f	; 63
 2de:	0f 92       	push	r0
 2e0:	11 24       	eor	r1, r1
 2e2:	2f 93       	push	r18
 2e4:	3f 93       	push	r19
 2e6:	4f 93       	push	r20
 2e8:	5f 93       	push	r21
 2ea:	6f 93       	push	r22
 2ec:	7f 93       	push	r23
 2ee:	8f 93       	push	r24
 2f0:	9f 93       	push	r25
 2f2:	af 93       	push	r26
 2f4:	bf 93       	push	r27
 2f6:	ef 93       	push	r30
 2f8:	ff 93       	push	r31
 2fa:	80 91 60 00 	lds	r24, 0x0060	; 0x800060 <__DATA_REGION_ORIGIN__>
 2fe:	90 91 61 00 	lds	r25, 0x0061	; 0x800061 <__DATA_REGION_ORIGIN__+0x1>
 302:	01 96       	adiw	r24, 0x01	; 1
 304:	90 93 61 00 	sts	0x0061, r25	; 0x800061 <__DATA_REGION_ORIGIN__+0x1>
 308:	80 93 60 00 	sts	0x0060, r24	; 0x800060 <__DATA_REGION_ORIGIN__>
 30c:	20 91 66 00 	lds	r18, 0x0066	; 0x800066 <Num_CompMatch>
 310:	30 91 67 00 	lds	r19, 0x0067	; 0x800067 <Num_CompMatch+0x1>
 314:	82 17       	cp	r24, r18
 316:	93 07       	cpc	r25, r19
 318:	49 f4       	brne	.+18     	; 0x32c <__vector_7+0x54>
 31a:	10 92 61 00 	sts	0x0061, r1	; 0x800061 <__DATA_REGION_ORIGIN__+0x1>
 31e:	10 92 60 00 	sts	0x0060, r1	; 0x800060 <__DATA_REGION_ORIGIN__>
 322:	e0 91 64 00 	lds	r30, 0x0064	; 0x800064 <ptr_Timer1>
 326:	f0 91 65 00 	lds	r31, 0x0065	; 0x800065 <ptr_Timer1+0x1>
 32a:	09 95       	icall
 32c:	ff 91       	pop	r31
 32e:	ef 91       	pop	r30
 330:	bf 91       	pop	r27
 332:	af 91       	pop	r26
 334:	9f 91       	pop	r25
 336:	8f 91       	pop	r24
 338:	7f 91       	pop	r23
 33a:	6f 91       	pop	r22
 33c:	5f 91       	pop	r21
 33e:	4f 91       	pop	r20
 340:	3f 91       	pop	r19
 342:	2f 91       	pop	r18
 344:	0f 90       	pop	r0
 346:	0f be       	out	0x3f, r0	; 63
 348:	0f 90       	pop	r0
 34a:	1f 90       	pop	r1
 34c:	18 95       	reti

0000034e <_exit>:
 34e:	f8 94       	cli

00000350 <__stop_program>:
 350:	ff cf       	rjmp	.-2      	; 0x350 <__stop_program>
